; Function Attrs: nounwind uwtable
define internal ptr @sys__is_interned(ptr readnone captures(none) %0, ptr noundef %1) #0 {
  %3 = getelementptr i8, ptr %1, i64 8
  %.val = load ptr, ptr %3, align 8, !tbaa !96
  %4 = getelementptr i8, ptr %.val, i64 168
  %.val7 = load i64, ptr %4, align 8, !tbaa !185
  %5 = and i64 %.val7, 268435456
  %.not = icmp eq i64 %5, 0
  br i1 %.not, label %6, label %7

6:                                                ; preds = %2
  tail call void @_PyArg_BadArgument(ptr noundef nonnull @.str.71, ptr noundef nonnull @.str.124, ptr noundef nonnull @.str.102, ptr noundef nonnull %1) #15
  br label %11

7:                                                ; preds = %2
  %8 = getelementptr i8, ptr %1, i64 32
  %.val8 = load i16, ptr %8, align 8, !tbaa !284
  %9 = zext i16 %.val8 to i64
  %10 = tail call ptr @PyBool_FromLong(i64 noundef %9) #15
  br label %11

11:                                               ; preds = %7, %6
  %.0 = phi ptr [ %10, %7 ], [ null, %6 ]
  ret ptr %.0
}